; Function Attrs: mustprogress nounwind uwtable
define hidden noundef ptr @_ZN8JVMCIEnv8asMethodE11JVMCIObject(ptr noundef nonnull align 8 dereferenceable(64) %0, ptr %1, i8 %2) local_unnamed_addr #0 align 2 {
  %4 = getelementptr inbounds i8, ptr %0, i64 24
  %5 = load i8, ptr %4, align 8
  %6 = trunc i8 %5 to i1
  br i1 %6, label %7, label %10

7:                                                ; preds = %3
  %8 = tail call noundef ptr @_ZN12HotSpotJVMCI7resolveE11JVMCIObject(ptr %1, i8 %2) #14
  %9 = tail call noundef i64 @_ZN12HotSpotJVMCI29HotSpotResolvedJavaMethodImpl12methodHandleEP8JVMCIEnvP7oopDesc(ptr noundef nonnull %0, ptr noundef %8) #14
  br label %_ZN8JVMCIEnv46get_HotSpotResolvedJavaMethodImpl_methodHandleE11JVMCIObject.exit

10:                                               ; preds = %3
  %11 = tail call noundef i64 @_ZN8JNIJVMCI29HotSpotResolvedJavaMethodImpl16get_methodHandleEP8JVMCIEnv11JVMCIObject(ptr noundef nonnull %0, ptr %1, i8 %2) #14
  br label %_ZN8JVMCIEnv46get_HotSpotResolvedJavaMethodImpl_methodHandleE11JVMCIObject.exit

_ZN8JVMCIEnv46get_HotSpotResolvedJavaMethodImpl_methodHandleE11JVMCIObject.exit: ; preds = %7, %10
  %.0.i = phi i64 [ %9, %7 ], [ %11, %10 ]
  %12 = inttoptr i64 %.0.i to ptr
  %13 = load ptr, ptr %12, align 8
  ret ptr %13
}